target datalayout = "e-m:e-p270:32:32-p271:32:32-p272:64:64-i64:64-i128:128-f80:128-n8:16:32:64-S128"
target triple = "x86_64-pc-linux-gnu"

%"class.boost::iostreams::file_descriptor" = type { %"class.boost::shared_ptr" }
%"class.boost::shared_ptr" = type { ptr, %"class.boost::detail::shared_count" }
%"class.boost::detail::shared_count" = type { ptr }

@_ZN5boost9iostreams6detail20file_descriptor_implC1Ev = hidden unnamed_addr alias void (ptr), ptr @_ZN5boost9iostreams6detail20file_descriptor_implC2Ev

; Function Attrs: mustprogress nounwind uwtable
define linkonce_odr hidden void @_ZN5boost6detail12shared_countC2Ev(ptr noundef nonnull align 8 dereferenceable(8) %0) unnamed_addr #1 comdat align 2 {
  %2 = alloca ptr, align 8
  store ptr %0, ptr %2, align 8, !tbaa !3
  %3 = load ptr, ptr %2, align 8
  %4 = getelementptr inbounds nuw %"class.boost::detail::shared_count", ptr %3, i32 0, i32 0
  store ptr null, ptr %4, align 8, !tbaa !45
  ret void
}

; Function Attrs: mustprogress uwtable
define linkonce_odr hidden void @_ZN5boost10shared_ptrINS_9iostreams6detail20file_descriptor_implEEC2IS3_EEPT_(ptr noundef nonnull align 8 dereferenceable(16) %0, ptr noundef %1) unnamed_addr #0 comdat align 2 personality ptr @__gxx_personality_v0 {
  %3 = alloca ptr, align 8
  %4 = alloca ptr, align 8
  %5 = alloca ptr, align 8
  %6 = alloca i32, align 4
  store ptr %0, ptr %3, align 8, !tbaa !3
  store ptr %1, ptr %4, align 8, !tbaa !3
  %7 = load ptr, ptr %3, align 8
  %8 = getelementptr inbounds nuw %"class.boost::shared_ptr", ptr %7, i32 0, i32 0
  %9 = load ptr, ptr %4, align 8, !tbaa !3
  store ptr %9, ptr %8, align 8, !tbaa !27
  %10 = getelementptr inbounds nuw %"class.boost::shared_ptr", ptr %7, i32 0, i32 1
  call void @_ZN5boost6detail12shared_countC2Ev(ptr noundef nonnull align 8 dereferenceable(8) %10) #20
  %11 = load ptr, ptr %4, align 8, !tbaa !3
  %12 = getelementptr inbounds nuw %"class.boost::shared_ptr", ptr %7, i32 0, i32 1
  invoke void @_ZN5boost6detail20sp_pointer_constructINS_9iostreams6detail20file_descriptor_implES4_EEvPNS_10shared_ptrIT_EEPT0_RNS0_12shared_countE(ptr noundef %7, ptr noundef %11, ptr noundef nonnull align 8 dereferenceable(8) %12)
          to label %13 unwind label %14

13:                                               ; preds = %2
  ret void

14:                                               ; preds = %2
  %15 = landingpad { ptr, i32 }
          cleanup
  %16 = extractvalue { ptr, i32 } %15, 0
  store ptr %16, ptr %5, align 8
  %17 = extractvalue { ptr, i32 } %15, 1
  store i32 %17, ptr %6, align 4
  call void @_ZN5boost6detail12shared_countD2Ev(ptr noundef nonnull align 8 dereferenceable(8) %10) #20
  br label %18

18:                                               ; preds = %14
  %19 = load ptr, ptr %5, align 8
  %20 = load i32, ptr %6, align 4
  %21 = insertvalue { ptr, i32 } poison, ptr %19, 0
  %22 = insertvalue { ptr, i32 } %21, i32 %20, 1
  resume { ptr, i32 } %22
}

; Function Attrs: mustprogress uwtable
define void @_ZN5boost9iostreams15file_descriptorC2Ev(ptr noundef nonnull align 8 dereferenceable(16) %0) unnamed_addr #0 align 2 personality ptr @__gxx_personality_v0 {
  %2 = alloca ptr, align 8
  %3 = alloca ptr, align 8
  %4 = alloca i32, align 4
  store ptr %0, ptr %2, align 8, !tbaa !3
  %5 = load ptr, ptr %2, align 8
  %6 = getelementptr inbounds nuw %"class.boost::iostreams::file_descriptor", ptr %5, i32 0, i32 0
  %7 = call noalias noundef nonnull ptr @_Znwm(i64 noundef 8) #24
  invoke void @_ZN5boost9iostreams6detail20file_descriptor_implC1Ev(ptr noundef nonnull align 4 dereferenceable(8) %7)
          to label %8 unwind label %9

8:                                                ; preds = %1
  call void @_ZN5boost10shared_ptrINS_9iostreams6detail20file_descriptor_implEEC2IS3_EEPT_(ptr noundef nonnull align 8 dereferenceable(16) %6, ptr noundef %7)
  ret void

9:                                                ; preds = %1
  %10 = landingpad { ptr, i32 }
          cleanup
  %11 = extractvalue { ptr, i32 } %10, 0
  store ptr %11, ptr %3, align 8
  %12 = extractvalue { ptr, i32 } %10, 1
  store i32 %12, ptr %4, align 4
  call void @_ZdlPvm(ptr noundef %7, i64 noundef 8) #25
  br label %13

13:                                               ; preds = %9
  %14 = load ptr, ptr %3, align 8
  %15 = load i32, ptr %4, align 4
  %16 = insertvalue { ptr, i32 } poison, ptr %14, 0
  %17 = insertvalue { ptr, i32 } %16, i32 %15, 1
  resume { ptr, i32 } %17
}

; Function Attrs: mustprogress uwtable
define void @_ZN5boost9iostreams22file_descriptor_sourceC2ERKNSt7__cxx1112basic_stringIcSt11char_traitsIcESaIcEEESt13_Ios_Openmode(ptr noundef nonnull align 8 dereferenceable(16) %0, ptr noundef nonnull align 8 dereferenceable(32) %1, i32 noundef %2) unnamed_addr #0 align 2 personality ptr @__gxx_personality_v0 {
  %4 = alloca ptr, align 8
  %5 = alloca ptr, align 8
  %6 = alloca i32, align 4
  %7 = alloca ptr, align 8
  %8 = alloca i32, align 4
  store ptr %0, ptr %4, align 8, !tbaa !3
  store ptr %1, ptr %5, align 8, !tbaa !3
  store i32 %2, ptr %6, align 4, !tbaa !18
  %9 = load ptr, ptr %4, align 8
  call void @_ZN5boost9iostreams15file_descriptorC2Ev(ptr noundef nonnull align 8 dereferenceable(16) %9)
  %10 = load ptr, ptr %5, align 8, !tbaa !3
  %11 = load i32, ptr %6, align 4, !tbaa !18
  invoke void @_ZN5boost9iostreams22file_descriptor_source4openERKNSt7__cxx1112basic_stringIcSt11char_traitsIcESaIcEEESt13_Ios_Openmode(ptr noundef nonnull align 8 dereferenceable(16) %9, ptr noundef nonnull align 8 dereferenceable(32) %10, i32 noundef %11)
          to label %12 unwind label %13

12:                                               ; preds = %3
  ret void

13:                                               ; preds = %3
  %14 = landingpad { ptr, i32 }
          cleanup
  %15 = extractvalue { ptr, i32 } %14, 0
  store ptr %15, ptr %7, align 8
  %16 = extractvalue { ptr, i32 } %14, 1
  store i32 %16, ptr %8, align 4
  call void @_ZN5boost9iostreams15file_descriptorD2Ev(ptr noundef nonnull align 8 dereferenceable(16) %9) #20
  br label %17

17:                                               ; preds = %13
  %18 = load ptr, ptr %7, align 8
  %19 = load i32, ptr %8, align 4
  %20 = insertvalue { ptr, i32 } poison, ptr %18, 0
  %21 = insertvalue { ptr, i32 } %20, i32 %19, 1
  resume { ptr, i32 } %21
}